; ModuleID = 'source-C-CXX/27/1429.c'
source_filename = "source-C-CXX/27/1429.c"
target datalayout = "e-m:e-p270:32:32-p271:32:32-p272:64:64-i64:64-f80:128-n8:16:32:64-S128"
target triple = "x86_64-pc-linux-gnu"

@.str = private unnamed_addr constant [3 x i8] c"%d\00", align 1
@.str.1 = private unnamed_addr constant [4 x i8] c",%d\00", align 1

; Function Attrs: nounwind sspstrong uwtable
define dso_local i32 @main() local_unnamed_addr #0 {
  %1 = alloca [100 x i8], align 16
  %2 = getelementptr inbounds [100 x i8], [100 x i8]* %1, i64 0, i64 0
  call void @llvm.lifetime.start.p0i8(i64 100, i8* nonnull %2) #5
  %3 = call i32 (i8*, ...) bitcast (i32 (...)* @gets to i32 (i8*, ...)*)(i8* nonnull %2) #5
  %4 = call i64 @strlen(i8* noundef nonnull %2) #6
  %5 = trunc i64 %4 to i32
  %6 = icmp sgt i32 %5, 0
  br i1 %6, label %7, label %43

7:                                                ; preds = %0
  %8 = shl i64 %4, 32
  %9 = ashr exact i64 %8, 32
  br label %10

10:                                               ; preds = %7, %34
  %11 = phi i8* [ getelementptr inbounds ([4 x i8], [4 x i8]* @.str.1, i64 0, i64 0), %34 ], [ getelementptr inbounds ([3 x i8], [3 x i8]* @.str, i64 0, i64 0), %7 ]
  %12 = phi i32 [ %41, %34 ], [ 0, %7 ]
  %13 = sext i32 %12 to i64
  br label %14

14:                                               ; preds = %14, %10
  %15 = phi i64 [ %21, %14 ], [ %13, %10 ]
  %16 = getelementptr inbounds [100 x i8], [100 x i8]* %1, i64 0, i64 %15
  %17 = load i8, i8* %16, align 1, !tbaa !5
  %18 = icmp eq i8 %17, 32
  %19 = icmp sle i64 %15, %9
  %20 = select i1 %18, i1 %19, i1 false
  %21 = add i64 %15, 1
  br i1 %20, label %14, label %22, !llvm.loop !8

22:                                               ; preds = %14
  %23 = trunc i64 %15 to i32
  %24 = shl i64 %15, 32
  %25 = ashr exact i64 %24, 32
  br label %26

26:                                               ; preds = %26, %22
  %27 = phi i64 [ %33, %26 ], [ %25, %22 ]
  %28 = getelementptr inbounds [100 x i8], [100 x i8]* %1, i64 0, i64 %27
  %29 = load i8, i8* %28, align 1, !tbaa !5
  %30 = icmp ne i8 %29, 32
  %31 = icmp sle i64 %27, %9
  %32 = select i1 %30, i1 %31, i1 false
  %33 = add i64 %27, 1
  br i1 %32, label %26, label %34, !llvm.loop !10

34:                                               ; preds = %26
  %35 = trunc i64 %27 to i32
  %36 = icmp sge i32 %35, %5
  %37 = sext i1 %36 to i32
  %38 = add nsw i32 %35, %37
  %39 = sub nsw i32 %38, %23
  %40 = call i32 (i8*, ...) @printf(i8* nonnull dereferenceable(1) %11, i32 %39)
  %41 = add nsw i32 %38, 1
  %42 = icmp slt i32 %41, %5
  br i1 %42, label %10, label %43, !llvm.loop !11

43:                                               ; preds = %34, %0
  call void @llvm.lifetime.end.p0i8(i64 100, i8* nonnull %2) #5
  ret i32 0
}

; Function Attrs: argmemonly mustprogress nofree nosync nounwind willreturn
declare void @llvm.lifetime.start.p0i8(i64 immarg, i8* nocapture) #1

declare i32 @gets(...) local_unnamed_addr #2

; Function Attrs: argmemonly mustprogress nofree nounwind readonly willreturn
declare i64 @strlen(i8* nocapture) local_unnamed_addr #3

; Function Attrs: nofree nounwind
declare noundef i32 @printf(i8* nocapture noundef readonly, ...) local_unnamed_addr #4

; Function Attrs: argmemonly mustprogress nofree nosync nounwind willreturn
declare void @llvm.lifetime.end.p0i8(i64 immarg, i8* nocapture) #1


!llvm.module.flags = !{!0, !1, !2, !3}
!llvm.ident = !{!4}

!0 = !{i32 1, !"wchar_size", i32 4}
!1 = !{i32 7, !"PIC Level", i32 2}
!2 = !{i32 7, !"PIE Level", i32 2}
!3 = !{i32 7, !"uwtable", i32 1}
!4 = !{!"clang version 13.0.0"}
!5 = !{!6, !6, i64 0}
!6 = !{!"omnipotent char", !7, i64 0}
!7 = !{!"Simple C/C++ TBAA"}
!8 = distinct !{!8, !9}
!9 = !{!"llvm.loop.mustprogress"}
!10 = distinct !{!10, !9}
!11 = distinct !{!11, !9}
